; Function Attrs: nounwind uwtable
define internal noundef i32 @str_lower(ptr noundef %0) #0 {
  %2 = alloca i64, align 8
  %3 = alloca %struct.luaL_Buffer, align 8
  call void @llvm.lifetime.start.p0(i64 8, ptr nonnull %2) #12
  call void @llvm.lifetime.start.p0(i64 1056, ptr nonnull %3) #12
  %4 = call ptr @luaL_checklstring(ptr noundef %0, i32 noundef 1, ptr noundef nonnull %2) #12
  %5 = load i64, ptr %2, align 8, !tbaa !4
  %6 = call ptr @luaL_buffinitsize(ptr noundef %0, ptr noundef nonnull %3, i64 noundef %5) #12
  %7 = load i64, ptr %2, align 8, !tbaa !4
  %.not = icmp eq i64 %7, 0
  br i1 %.not, label %._crit_edge, label %.lr.ph

.lr.ph:                                           ; preds = %1
  %8 = tail call ptr @__ctype_tolower_loc() #14
  br label %9

9:                                                ; preds = %.lr.ph, %9
  %.010 = phi i64 [ 0, %.lr.ph ], [ %18, %9 ]
  %10 = load ptr, ptr %8, align 8, !tbaa !42
  %11 = getelementptr inbounds nuw i8, ptr %4, i64 %.010
  %12 = load i8, ptr %11, align 1, !tbaa !9
  %13 = zext i8 %12 to i64
  %14 = getelementptr inbounds nuw i32, ptr %10, i64 %13
  %15 = load i32, ptr %14, align 4, !tbaa !44
  %16 = trunc i32 %15 to i8
  %17 = getelementptr inbounds nuw i8, ptr %6, i64 %.010
  store i8 %16, ptr %17, align 1, !tbaa !9
  %18 = add nuw i64 %.010, 1
  %19 = load i64, ptr %2, align 8, !tbaa !4
  %20 = icmp ult i64 %18, %19
  br i1 %20, label %9, label %._crit_edge

._crit_edge:                                      ; preds = %9, %1
  %.lcssa = phi i64 [ 0, %1 ], [ %19, %9 ]
  call void @luaL_pushresultsize(ptr noundef nonnull %3, i64 noundef %.lcssa) #12
  call void @llvm.lifetime.end.p0(i64 1056, ptr nonnull %3) #12
  call void @llvm.lifetime.end.p0(i64 8, ptr nonnull %2) #12
  ret i32 1
}